; ModuleID = '9/286.c'
source_filename = "9/286.c"
target datalayout = "e-m:e-p270:32:32-p271:32:32-p272:64:64-i64:64-f80:128-n8:16:32:64-S128"
target triple = "x86_64-pc-linux-gnu"

%struct.anon = type { [10 x i8], i32 }

@.str = private unnamed_addr constant [3 x i8] c"%d\00", align 1
@.str.1 = private unnamed_addr constant [5 x i8] c"%s%d\00", align 1
@.str.2 = private unnamed_addr constant [4 x i8] c"%s\0A\00", align 1

; Function Attrs: noinline nounwind uwtable
define dso_local i32 @main() #0 {
  %1 = alloca i32, align 4
  %2 = alloca i32, align 4
  %3 = alloca i32, align 4
  %4 = alloca i32, align 4
  %5 = alloca i32, align 4
  %6 = alloca i32, align 4
  %7 = alloca [100 x %struct.anon], align 16
  %8 = alloca [100 x %struct.anon], align 16
  %9 = alloca [100 x %struct.anon], align 16
  %10 = alloca %struct.anon, align 4
  store i32 0, i32* %1, align 4
  store i32 0, i32* %4, align 4
  store i32 0, i32* %5, align 4
  %11 = call i32 (i8*, ...) @__isoc99_scanf(i8* getelementptr inbounds ([3 x i8], [3 x i8]* @.str, i64 0, i64 0), i32* %3)
  store i32 0, i32* %2, align 4
  br label %12

12:                                               ; preds = %26, %0
  %13 = load i32, i32* %2, align 4
  %14 = load i32, i32* %3, align 4
  %15 = icmp slt i32 %13, %14
  br i1 %15, label %16, label %29

16:                                               ; preds = %12
  %17 = load i32, i32* %2, align 4
  %18 = sext i32 %17 to i64
  %19 = getelementptr inbounds [100 x %struct.anon], [100 x %struct.anon]* %7, i64 0, i64 %18
  %20 = getelementptr inbounds %struct.anon, %struct.anon* %19, i32 0, i32 0
  %21 = load i32, i32* %2, align 4
  %22 = sext i32 %21 to i64
  %23 = getelementptr inbounds [100 x %struct.anon], [100 x %struct.anon]* %7, i64 0, i64 %22
  %24 = getelementptr inbounds %struct.anon, %struct.anon* %23, i32 0, i32 1
  %25 = call i32 (i8*, ...) @__isoc99_scanf(i8* getelementptr inbounds ([5 x i8], [5 x i8]* @.str.1, i64 0, i64 0), [10 x i8]* %20, i32* %24)
  br label %26

26:                                               ; preds = %16
  %27 = load i32, i32* %2, align 4
  %28 = add nsw i32 %27, 1
  store i32 %28, i32* %2, align 4
  br label %12

29:                                               ; preds = %12
  store i32 0, i32* %2, align 4
  br label %30

30:                                               ; preds = %70, %29
  %31 = load i32, i32* %2, align 4
  %32 = load i32, i32* %3, align 4
  %33 = icmp slt i32 %31, %32
  br i1 %33, label %34, label %73

34:                                               ; preds = %30
  %35 = load i32, i32* %2, align 4
  %36 = sext i32 %35 to i64
  %37 = getelementptr inbounds [100 x %struct.anon], [100 x %struct.anon]* %7, i64 0, i64 %36
  %38 = getelementptr inbounds %struct.anon, %struct.anon* %37, i32 0, i32 1
  %39 = load i32, i32* %38, align 4
  %40 = icmp sge i32 %39, 60
  br i1 %40, label %41, label %51

41:                                               ; preds = %34
  %42 = load i32, i32* %4, align 4
  %43 = add nsw i32 %42, 1
  store i32 %43, i32* %4, align 4
  %44 = sext i32 %42 to i64
  %45 = getelementptr inbounds [100 x %struct.anon], [100 x %struct.anon]* %8, i64 0, i64 %44
  %46 = load i32, i32* %2, align 4
  %47 = sext i32 %46 to i64
  %48 = getelementptr inbounds [100 x %struct.anon], [100 x %struct.anon]* %7, i64 0, i64 %47
  %49 = bitcast %struct.anon* %45 to i8*
  %50 = bitcast %struct.anon* %48 to i8*
  call void @llvm.memcpy.p0i8.p0i8.i64(i8* align 16 %49, i8* align 16 %50, i64 16, i1 false)
  br label %69

51:                                               ; preds = %34
  %52 = load i32, i32* %2, align 4
  %53 = sext i32 %52 to i64
  %54 = getelementptr inbounds [100 x %struct.anon], [100 x %struct.anon]* %7, i64 0, i64 %53
  %55 = getelementptr inbounds %struct.anon, %struct.anon* %54, i32 0, i32 1
  %56 = load i32, i32* %55, align 4
  %57 = icmp slt i32 %56, 60
  br i1 %57, label %58, label %68

58:                                               ; preds = %51
  %59 = load i32, i32* %5, align 4
  %60 = add nsw i32 %59, 1
  store i32 %60, i32* %5, align 4
  %61 = sext i32 %59 to i64
  %62 = getelementptr inbounds [100 x %struct.anon], [100 x %struct.anon]* %9, i64 0, i64 %61
  %63 = load i32, i32* %2, align 4
  %64 = sext i32 %63 to i64
  %65 = getelementptr inbounds [100 x %struct.anon], [100 x %struct.anon]* %7, i64 0, i64 %64
  %66 = bitcast %struct.anon* %62 to i8*
  %67 = bitcast %struct.anon* %65 to i8*
  call void @llvm.memcpy.p0i8.p0i8.i64(i8* align 16 %66, i8* align 16 %67, i64 16, i1 false)
  br label %68

68:                                               ; preds = %58, %51
  br label %69

69:                                               ; preds = %68, %41
  br label %70

70:                                               ; preds = %69
  %71 = load i32, i32* %2, align 4
  %72 = add nsw i32 %71, 1
  store i32 %72, i32* %2, align 4
  br label %30

73:                                               ; preds = %30
  store i32 1, i32* %2, align 4
  br label %74

74:                                               ; preds = %122, %73
  %75 = load i32, i32* %2, align 4
  %76 = load i32, i32* %4, align 4
  %77 = icmp slt i32 %75, %76
  br i1 %77, label %78, label %125

78:                                               ; preds = %74
  %79 = load i32, i32* %2, align 4
  store i32 %79, i32* %6, align 4
  br label %80

80:                                               ; preds = %118, %78
  %81 = load i32, i32* %6, align 4
  %82 = icmp sgt i32 %81, 0
  br i1 %82, label %83, label %121

83:                                               ; preds = %80
  %84 = load i32, i32* %6, align 4
  %85 = sext i32 %84 to i64
  %86 = getelementptr inbounds [100 x %struct.anon], [100 x %struct.anon]* %8, i64 0, i64 %85
  %87 = getelementptr inbounds %struct.anon, %struct.anon* %86, i32 0, i32 1
  %88 = load i32, i32* %87, align 4
  %89 = load i32, i32* %6, align 4
  %90 = sub nsw i32 %89, 1
  %91 = sext i32 %90 to i64
  %92 = getelementptr inbounds [100 x %struct.anon], [100 x %struct.anon]* %8, i64 0, i64 %91
  %93 = getelementptr inbounds %struct.anon, %struct.anon* %92, i32 0, i32 1
  %94 = load i32, i32* %93, align 4
  %95 = icmp sgt i32 %88, %94
  br i1 %95, label %96, label %117

96:                                               ; preds = %83
  %97 = load i32, i32* %6, align 4
  %98 = sext i32 %97 to i64
  %99 = getelementptr inbounds [100 x %struct.anon], [100 x %struct.anon]* %8, i64 0, i64 %98
  %100 = bitcast %struct.anon* %10 to i8*
  %101 = bitcast %struct.anon* %99 to i8*
  call void @llvm.memcpy.p0i8.p0i8.i64(i8* align 4 %100, i8* align 16 %101, i64 16, i1 false)
  %102 = load i32, i32* %6, align 4
  %103 = sext i32 %102 to i64
  %104 = getelementptr inbounds [100 x %struct.anon], [100 x %struct.anon]* %8, i64 0, i64 %103
  %105 = load i32, i32* %6, align 4
  %106 = sub nsw i32 %105, 1
  %107 = sext i32 %106 to i64
  %108 = getelementptr inbounds [100 x %struct.anon], [100 x %struct.anon]* %8, i64 0, i64 %107
  %109 = bitcast %struct.anon* %104 to i8*
  %110 = bitcast %struct.anon* %108 to i8*
  call void @llvm.memcpy.p0i8.p0i8.i64(i8* align 16 %109, i8* align 16 %110, i64 16, i1 false)
  %111 = load i32, i32* %6, align 4
  %112 = sub nsw i32 %111, 1
  %113 = sext i32 %112 to i64
  %114 = getelementptr inbounds [100 x %struct.anon], [100 x %struct.anon]* %8, i64 0, i64 %113
  %115 = bitcast %struct.anon* %114 to i8*
  %116 = bitcast %struct.anon* %10 to i8*
  call void @llvm.memcpy.p0i8.p0i8.i64(i8* align 16 %115, i8* align 4 %116, i64 16, i1 false)
  br label %117

117:                                              ; preds = %96, %83
  br label %118

118:                                              ; preds = %117
  %119 = load i32, i32* %6, align 4
  %120 = add nsw i32 %119, -1
  store i32 %120, i32* %6, align 4
  br label %80

121:                                              ; preds = %80
  br label %122

122:                                              ; preds = %121
  %123 = load i32, i32* %2, align 4
  %124 = add nsw i32 %123, 1
  store i32 %124, i32* %2, align 4
  br label %74

125:                                              ; preds = %74
  store i32 0, i32* %2, align 4
  br label %126

126:                                              ; preds = %137, %125
  %127 = load i32, i32* %2, align 4
  %128 = load i32, i32* %4, align 4
  %129 = icmp slt i32 %127, %128
  br i1 %129, label %130, label %140

130:                                              ; preds = %126
  %131 = load i32, i32* %2, align 4
  %132 = sext i32 %131 to i64
  %133 = getelementptr inbounds [100 x %struct.anon], [100 x %struct.anon]* %8, i64 0, i64 %132
  %134 = getelementptr inbounds %struct.anon, %struct.anon* %133, i32 0, i32 0
  %135 = getelementptr inbounds [10 x i8], [10 x i8]* %134, i64 0, i64 0
  %136 = call i32 (i8*, ...) @printf(i8* getelementptr inbounds ([4 x i8], [4 x i8]* @.str.2, i64 0, i64 0), i8* %135)
  br label %137

137:                                              ; preds = %130
  %138 = load i32, i32* %2, align 4
  %139 = add nsw i32 %138, 1
  store i32 %139, i32* %2, align 4
  br label %126

140:                                              ; preds = %126
  store i32 0, i32* %2, align 4
  br label %141

141:                                              ; preds = %152, %140
  %142 = load i32, i32* %2, align 4
  %143 = load i32, i32* %5, align 4
  %144 = icmp slt i32 %142, %143
  br i1 %144, label %145, label %155

145:                                              ; preds = %141
  %146 = load i32, i32* %2, align 4
  %147 = sext i32 %146 to i64
  %148 = getelementptr inbounds [100 x %struct.anon], [100 x %struct.anon]* %9, i64 0, i64 %147
  %149 = getelementptr inbounds %struct.anon, %struct.anon* %148, i32 0, i32 0
  %150 = getelementptr inbounds [10 x i8], [10 x i8]* %149, i64 0, i64 0
  %151 = call i32 (i8*, ...) @printf(i8* getelementptr inbounds ([4 x i8], [4 x i8]* @.str.2, i64 0, i64 0), i8* %150)
  br label %152

152:                                              ; preds = %145
  %153 = load i32, i32* %2, align 4
  %154 = add nsw i32 %153, 1
  store i32 %154, i32* %2, align 4
  br label %141

155:                                              ; preds = %141
  ret i32 0
}

declare dso_local i32 @__isoc99_scanf(i8*, ...) #1

; Function Attrs: argmemonly nounwind willreturn
declare void @llvm.memcpy.p0i8.p0i8.i64(i8* noalias nocapture writeonly, i8* noalias nocapture readonly, i64, i1 immarg) #2

declare dso_local i32 @printf(i8*, ...) #1


!llvm.module.flags = !{!0}
!llvm.ident = !{!1}

!0 = !{i32 1, !"wchar_size", i32 4}
!1 = !{!"clang version 10.0.0-4ubuntu1 "}
